target datalayout = "e-m:e-p270:32:32-p271:32:32-p272:64:64-i64:64-i128:128-f80:128-n8:16:32:64-S128"
target triple = "x86_64-pc-linux-gnu"

%struct.LogicalTapeSet = type { ptr, ptr, i32, i64, i64, i64, i8, ptr, i64, i64, i8 }
%struct.LogicalTape = type { ptr, i8, i8, i8, i64, i64, i64, i64, ptr, i32, i32, i32, i32, ptr, i32, i32 }

; Function Attrs: inlinehint nounwind uwtable
define internal i64 @right_offset(i64 noundef %0) #5 {
  %2 = alloca i64, align 8
  store i64 %0, ptr %2, align 8
  %3 = load i64, ptr %2, align 8
  %4 = mul i64 2, %3
  %5 = add i64 %4, 2
  ret i64 %5
}

; Function Attrs: inlinehint nounwind uwtable
define internal i64 @left_offset(i64 noundef %0) #5 {
  %2 = alloca i64, align 8
  store i64 %0, ptr %2, align 8
  %3 = load i64, ptr %2, align 8
  %4 = mul i64 2, %3
  %5 = add i64 %4, 1
  ret i64 %5
}

; Function Attrs: nounwind uwtable
define internal i64 @ltsGetFreeBlock(ptr noundef %0) #0 {
  %2 = alloca i64, align 8
  %3 = alloca ptr, align 8
  %4 = alloca ptr, align 8
  %5 = alloca i64, align 8
  %6 = alloca i64, align 8
  %7 = alloca i64, align 8
  %8 = alloca i64, align 8
  %9 = alloca i32, align 4
  %10 = alloca i64, align 8
  %11 = alloca i64, align 8
  %12 = alloca i64, align 8
  store ptr %0, ptr %3, align 8
  call void @llvm.lifetime.start.p0(i64 8, ptr %4) #7
  %13 = load ptr, ptr %3, align 8
  %14 = getelementptr inbounds nuw %struct.LogicalTapeSet, ptr %13, i32 0, i32 7
  %15 = load ptr, ptr %14, align 8
  store ptr %15, ptr %4, align 8
  call void @llvm.lifetime.start.p0(i64 8, ptr %5) #7
  call void @llvm.lifetime.start.p0(i64 8, ptr %6) #7
  call void @llvm.lifetime.start.p0(i64 8, ptr %7) #7
  call void @llvm.lifetime.start.p0(i64 8, ptr %8) #7
  %16 = load ptr, ptr %3, align 8
  %17 = getelementptr inbounds nuw %struct.LogicalTapeSet, ptr %16, i32 0, i32 8
  %18 = load i64, ptr %17, align 8
  %19 = icmp eq i64 %18, 0
  br i1 %19, label %20, label %25

20:                                               ; preds = %1
  %21 = load ptr, ptr %3, align 8
  %22 = getelementptr inbounds nuw %struct.LogicalTapeSet, ptr %21, i32 0, i32 3
  %23 = load i64, ptr %22, align 8
  %24 = add i64 %23, 1
  store i64 %24, ptr %22, align 8
  store i64 %23, ptr %2, align 8
  store i32 1, ptr %9, align 4
  br label %124

25:                                               ; preds = %1
  %26 = load ptr, ptr %3, align 8
  %27 = getelementptr inbounds nuw %struct.LogicalTapeSet, ptr %26, i32 0, i32 8
  %28 = load i64, ptr %27, align 8
  %29 = icmp eq i64 %28, 1
  br i1 %29, label %30, label %40

30:                                               ; preds = %25
  %31 = load ptr, ptr %3, align 8
  %32 = getelementptr inbounds nuw %struct.LogicalTapeSet, ptr %31, i32 0, i32 8
  %33 = load i64, ptr %32, align 8
  %34 = add i64 %33, -1
  store i64 %34, ptr %32, align 8
  %35 = load ptr, ptr %3, align 8
  %36 = getelementptr inbounds nuw %struct.LogicalTapeSet, ptr %35, i32 0, i32 7
  %37 = load ptr, ptr %36, align 8
  %38 = getelementptr inbounds i64, ptr %37, i64 0
  %39 = load i64, ptr %38, align 8
  store i64 %39, ptr %2, align 8
  store i32 1, ptr %9, align 4
  br label %124

40:                                               ; preds = %25
  %41 = load ptr, ptr %4, align 8
  %42 = getelementptr inbounds i64, ptr %41, i64 0
  %43 = load i64, ptr %42, align 8
  store i64 %43, ptr %5, align 8
  %44 = load ptr, ptr %4, align 8
  %45 = load ptr, ptr %3, align 8
  %46 = getelementptr inbounds nuw %struct.LogicalTapeSet, ptr %45, i32 0, i32 8
  %47 = load i64, ptr %46, align 8
  %48 = add i64 %47, -1
  store i64 %48, ptr %46, align 8
  %49 = getelementptr inbounds i64, ptr %44, i64 %48
  %50 = load i64, ptr %49, align 8
  store i64 %50, ptr %7, align 8
  store i64 0, ptr %8, align 8
  %51 = load ptr, ptr %3, align 8
  %52 = getelementptr inbounds nuw %struct.LogicalTapeSet, ptr %51, i32 0, i32 8
  %53 = load i64, ptr %52, align 8
  store i64 %53, ptr %6, align 8
  br label %54

54:                                               ; preds = %117, %40
  br label %55

55:                                               ; preds = %54
  call void @llvm.lifetime.start.p0(i64 8, ptr %10) #7
  %56 = load i64, ptr %8, align 8
  %57 = call i64 @left_offset(i64 noundef %56)
  store i64 %57, ptr %10, align 8
  call void @llvm.lifetime.start.p0(i64 8, ptr %11) #7
  %58 = load i64, ptr %8, align 8
  %59 = call i64 @right_offset(i64 noundef %58)
  store i64 %59, ptr %11, align 8
  call void @llvm.lifetime.start.p0(i64 8, ptr %12) #7
  %60 = load i64, ptr %10, align 8
  %61 = load i64, ptr %6, align 8
  %62 = icmp ult i64 %60, %61
  br i1 %62, label %63, label %83

63:                                               ; preds = %55
  %64 = load i64, ptr %11, align 8
  %65 = load i64, ptr %6, align 8
  %66 = icmp ult i64 %64, %65
  br i1 %66, label %67, label %83

67:                                               ; preds = %63
  %68 = load ptr, ptr %4, align 8
  %69 = load i64, ptr %10, align 8
  %70 = getelementptr inbounds nuw i64, ptr %68, i64 %69
  %71 = load i64, ptr %70, align 8
  %72 = load ptr, ptr %4, align 8
  %73 = load i64, ptr %11, align 8
  %74 = getelementptr inbounds nuw i64, ptr %72, i64 %73
  %75 = load i64, ptr %74, align 8
  %76 = icmp slt i64 %71, %75
  br i1 %76, label %77, label %79

77:                                               ; preds = %67
  %78 = load i64, ptr %10, align 8
  br label %81

79:                                               ; preds = %67
  %80 = load i64, ptr %11, align 8
  br label %81

81:                                               ; preds = %79, %77
  %82 = phi i64 [ %78, %77 ], [ %80, %79 ]
  store i64 %82, ptr %12, align 8
  br label %98

83:                                               ; preds = %63, %55
  %84 = load i64, ptr %10, align 8
  %85 = load i64, ptr %6, align 8
  %86 = icmp ult i64 %84, %85
  br i1 %86, label %87, label %89

87:                                               ; preds = %83
  %88 = load i64, ptr %10, align 8
  store i64 %88, ptr %12, align 8
  br label %97

89:                                               ; preds = %83
  %90 = load i64, ptr %11, align 8
  %91 = load i64, ptr %6, align 8
  %92 = icmp ult i64 %90, %91
  br i1 %92, label %93, label %95

93:                                               ; preds = %89
  %94 = load i64, ptr %11, align 8
  store i64 %94, ptr %12, align 8
  br label %96

95:                                               ; preds = %89
  store i32 3, ptr %9, align 4
  br label %115

96:                                               ; preds = %93
  br label %97

97:                                               ; preds = %96, %87
  br label %98

98:                                               ; preds = %97, %81
  %99 = load ptr, ptr %4, align 8
  %100 = load i64, ptr %12, align 8
  %101 = getelementptr inbounds nuw i64, ptr %99, i64 %100
  %102 = load i64, ptr %101, align 8
  %103 = load i64, ptr %7, align 8
  %104 = icmp sge i64 %102, %103
  br i1 %104, label %105, label %106

105:                                              ; preds = %98
  store i32 3, ptr %9, align 4
  br label %115

106:                                              ; preds = %98
  %107 = load ptr, ptr %4, align 8
  %108 = load i64, ptr %12, align 8
  %109 = getelementptr inbounds nuw i64, ptr %107, i64 %108
  %110 = load i64, ptr %109, align 8
  %111 = load ptr, ptr %4, align 8
  %112 = load i64, ptr %8, align 8
  %113 = getelementptr inbounds nuw i64, ptr %111, i64 %112
  store i64 %110, ptr %113, align 8
  %114 = load i64, ptr %12, align 8
  store i64 %114, ptr %8, align 8
  store i32 0, ptr %9, align 4
  br label %115

115:                                              ; preds = %106, %105, %95
  call void @llvm.lifetime.end.p0(i64 8, ptr %12) #7
  call void @llvm.lifetime.end.p0(i64 8, ptr %11) #7
  call void @llvm.lifetime.end.p0(i64 8, ptr %10) #7
  %116 = load i32, ptr %9, align 4
  switch i32 %116, label %126 [
    i32 0, label %117
    i32 3, label %118
  ]

117:                                              ; preds = %115
  br label %54

118:                                              ; preds = %115
  %119 = load i64, ptr %7, align 8
  %120 = load ptr, ptr %4, align 8
  %121 = load i64, ptr %8, align 8
  %122 = getelementptr inbounds nuw i64, ptr %120, i64 %121
  store i64 %119, ptr %122, align 8
  %123 = load i64, ptr %5, align 8
  store i64 %123, ptr %2, align 8
  store i32 1, ptr %9, align 4
  br label %124

124:                                              ; preds = %118, %30, %20
  call void @llvm.lifetime.end.p0(i64 8, ptr %8) #7
  call void @llvm.lifetime.end.p0(i64 8, ptr %7) #7
  call void @llvm.lifetime.end.p0(i64 8, ptr %6) #7
  call void @llvm.lifetime.end.p0(i64 8, ptr %5) #7
  call void @llvm.lifetime.end.p0(i64 8, ptr %4) #7
  %125 = load i64, ptr %2, align 8
  ret i64 %125

126:                                              ; preds = %115
  unreachable
}

; Function Attrs: nounwind uwtable
define internal i64 @ltsGetPreallocBlock(ptr noundef %0, ptr noundef %1) #0 {
  %3 = alloca i64, align 8
  %4 = alloca ptr, align 8
  %5 = alloca ptr, align 8
  %6 = alloca i32, align 4
  store ptr %0, ptr %4, align 8
  store ptr %1, ptr %5, align 8
  %7 = load ptr, ptr %5, align 8
  %8 = getelementptr inbounds nuw %struct.LogicalTape, ptr %7, i32 0, i32 14
  %9 = load i32, ptr %8, align 8
  %10 = icmp sgt i32 %9, 0
  br i1 %10, label %11, label %22

11:                                               ; preds = %2
  %12 = load ptr, ptr %5, align 8
  %13 = getelementptr inbounds nuw %struct.LogicalTape, ptr %12, i32 0, i32 13
  %14 = load ptr, ptr %13, align 8
  %15 = load ptr, ptr %5, align 8
  %16 = getelementptr inbounds nuw %struct.LogicalTape, ptr %15, i32 0, i32 14
  %17 = load i32, ptr %16, align 8
  %18 = add i32 %17, -1
  store i32 %18, ptr %16, align 8
  %19 = sext i32 %18 to i64
  %20 = getelementptr inbounds i64, ptr %14, i64 %19
  %21 = load i64, ptr %20, align 8
  store i64 %21, ptr %3, align 8
  br label %105

22:                                               ; preds = %2
  %23 = load ptr, ptr %5, align 8
  %24 = getelementptr inbounds nuw %struct.LogicalTape, ptr %23, i32 0, i32 13
  %25 = load ptr, ptr %24, align 8
  %26 = icmp eq ptr %25, null
  br i1 %26, label %27, label %38

27:                                               ; preds = %22
  %28 = load ptr, ptr %5, align 8
  %29 = getelementptr inbounds nuw %struct.LogicalTape, ptr %28, i32 0, i32 15
  store i32 8, ptr %29, align 4
  %30 = load ptr, ptr %5, align 8
  %31 = getelementptr inbounds nuw %struct.LogicalTape, ptr %30, i32 0, i32 15
  %32 = load i32, ptr %31, align 4
  %33 = sext i32 %32 to i64
  %34 = mul i64 8, %33
  %35 = call ptr @palloc(i64 noundef %34)
  %36 = load ptr, ptr %5, align 8
  %37 = getelementptr inbounds nuw %struct.LogicalTape, ptr %36, i32 0, i32 13
  store ptr %35, ptr %37, align 8
  br label %68

38:                                               ; preds = %22
  %39 = load ptr, ptr %5, align 8
  %40 = getelementptr inbounds nuw %struct.LogicalTape, ptr %39, i32 0, i32 15
  %41 = load i32, ptr %40, align 4
  %42 = icmp slt i32 %41, 128
  br i1 %42, label %43, label %67

43:                                               ; preds = %38
  %44 = load ptr, ptr %5, align 8
  %45 = getelementptr inbounds nuw %struct.LogicalTape, ptr %44, i32 0, i32 15
  %46 = load i32, ptr %45, align 4
  %47 = mul i32 %46, 2
  store i32 %47, ptr %45, align 4
  %48 = load ptr, ptr %5, align 8
  %49 = getelementptr inbounds nuw %struct.LogicalTape, ptr %48, i32 0, i32 15
  %50 = load i32, ptr %49, align 4
  %51 = icmp sgt i32 %50, 128
  br i1 %51, label %52, label %55

52:                                               ; preds = %43
  %53 = load ptr, ptr %5, align 8
  %54 = getelementptr inbounds nuw %struct.LogicalTape, ptr %53, i32 0, i32 15
  store i32 128, ptr %54, align 4
  br label %55

55:                                               ; preds = %52, %43
  %56 = load ptr, ptr %5, align 8
  %57 = getelementptr inbounds nuw %struct.LogicalTape, ptr %56, i32 0, i32 13
  %58 = load ptr, ptr %57, align 8
  %59 = load ptr, ptr %5, align 8
  %60 = getelementptr inbounds nuw %struct.LogicalTape, ptr %59, i32 0, i32 15
  %61 = load i32, ptr %60, align 4
  %62 = sext i32 %61 to i64
  %63 = mul i64 8, %62
  %64 = call ptr @repalloc(ptr noundef %58, i64 noundef %63)
  %65 = load ptr, ptr %5, align 8
  %66 = getelementptr inbounds nuw %struct.LogicalTape, ptr %65, i32 0, i32 13
  store ptr %64, ptr %66, align 8
  br label %67

67:                                               ; preds = %55, %38
  br label %68

68:                                               ; preds = %67, %27
  %69 = load ptr, ptr %5, align 8
  %70 = getelementptr inbounds nuw %struct.LogicalTape, ptr %69, i32 0, i32 15
  %71 = load i32, ptr %70, align 4
  %72 = load ptr, ptr %5, align 8
  %73 = getelementptr inbounds nuw %struct.LogicalTape, ptr %72, i32 0, i32 14
  store i32 %71, ptr %73, align 8
  call void @llvm.lifetime.start.p0(i64 4, ptr %6) #7
  %74 = load ptr, ptr %5, align 8
  %75 = getelementptr inbounds nuw %struct.LogicalTape, ptr %74, i32 0, i32 14
  %76 = load i32, ptr %75, align 8
  store i32 %76, ptr %6, align 4
  br label %77

77:                                               ; preds = %91, %68
  %78 = load i32, ptr %6, align 4
  %79 = icmp sgt i32 %78, 0
  br i1 %79, label %81, label %80

80:                                               ; preds = %77
  call void @llvm.lifetime.end.p0(i64 4, ptr %6) #7
  br label %94

81:                                               ; preds = %77
  %82 = load ptr, ptr %4, align 8
  %83 = call i64 @ltsGetFreeBlock(ptr noundef %82)
  %84 = load ptr, ptr %5, align 8
  %85 = getelementptr inbounds nuw %struct.LogicalTape, ptr %84, i32 0, i32 13
  %86 = load ptr, ptr %85, align 8
  %87 = load i32, ptr %6, align 4
  %88 = sub i32 %87, 1
  %89 = sext i32 %88 to i64
  %90 = getelementptr inbounds i64, ptr %86, i64 %89
  store i64 %83, ptr %90, align 8
  br label %91

91:                                               ; preds = %81
  %92 = load i32, ptr %6, align 4
  %93 = add i32 %92, -1
  store i32 %93, ptr %6, align 4
  br label %77, !llvm.loop !15

94:                                               ; preds = %80
  %95 = load ptr, ptr %5, align 8
  %96 = getelementptr inbounds nuw %struct.LogicalTape, ptr %95, i32 0, i32 13
  %97 = load ptr, ptr %96, align 8
  %98 = load ptr, ptr %5, align 8
  %99 = getelementptr inbounds nuw %struct.LogicalTape, ptr %98, i32 0, i32 14
  %100 = load i32, ptr %99, align 8
  %101 = add i32 %100, -1
  store i32 %101, ptr %99, align 8
  %102 = sext i32 %101 to i64
  %103 = getelementptr inbounds i64, ptr %97, i64 %102
  %104 = load i64, ptr %103, align 8
  store i64 %104, ptr %3, align 8
  br label %105

105:                                              ; preds = %94, %11
  %106 = load i64, ptr %3, align 8
  ret i64 %106
}

; Function Attrs: nounwind uwtable
define internal i64 @ltsGetBlock(ptr noundef %0, ptr noundef %1) #0 {
  %3 = alloca i64, align 8
  %4 = alloca ptr, align 8
  %5 = alloca ptr, align 8
  store ptr %0, ptr %4, align 8
  store ptr %1, ptr %5, align 8
  %6 = load ptr, ptr %4, align 8
  %7 = getelementptr inbounds nuw %struct.LogicalTapeSet, ptr %6, i32 0, i32 10
  %8 = load i8, ptr %7, align 8, !range !4, !noundef !5
  %9 = trunc i8 %8 to i1
  br i1 %9, label %10, label %14

10:                                               ; preds = %2
  %11 = load ptr, ptr %4, align 8
  %12 = load ptr, ptr %5, align 8
  %13 = call i64 @ltsGetPreallocBlock(ptr noundef %11, ptr noundef %12)
  store i64 %13, ptr %3, align 8
  br label %17

14:                                               ; preds = %2
  %15 = load ptr, ptr %4, align 8
  %16 = call i64 @ltsGetFreeBlock(ptr noundef %15)
  store i64 %16, ptr %3, align 8
  br label %17

17:                                               ; preds = %14, %10
  %18 = load i64, ptr %3, align 8
  ret i64 %18
}