; Function Attrs: nounwind uwtable
define internal fastcc i64 @ltsGetBlock(ptr noundef captures(none) %0, ptr noundef captures(none) %1) unnamed_addr #0 {
  %3 = getelementptr inbounds nuw i8, ptr %0, i64 80
  %4 = load i8, ptr %3, align 8, !range !4, !noundef !5
  %5 = trunc nuw i8 %4 to i1
  br i1 %5, label %6, label %79

6:                                                ; preds = %2
  %7 = getelementptr inbounds nuw i8, ptr %1, i64 80
  %8 = load i32, ptr %7, align 8
  %9 = icmp sgt i32 %8, 0
  %10 = getelementptr inbounds nuw i8, ptr %1, i64 72
  %11 = load ptr, ptr %10, align 8
  br i1 %9, label %12, label %16

12:                                               ; preds = %6
  %13 = add nsw i32 %8, -1
  store i32 %13, ptr %7, align 8
  %14 = zext nneg i32 %13 to i64
  %15 = getelementptr inbounds nuw i64, ptr %11, i64 %14
  br label %ltsGetPreallocBlock.exit

16:                                               ; preds = %6
  %17 = icmp eq ptr %11, null
  %18 = getelementptr inbounds nuw i8, ptr %1, i64 84
  br i1 %17, label %19, label %21

19:                                               ; preds = %16
  store i32 8, ptr %18, align 4
  %20 = tail call ptr @palloc(i64 noundef 64) #10
  br label %29

21:                                               ; preds = %16
  %22 = load i32, ptr %18, align 4
  %23 = icmp slt i32 %22, 128
  br i1 %23, label %24, label %.thread

.thread:                                          ; preds = %21
  store i32 %22, ptr %7, align 8
  br label %.lr.ph.i

24:                                               ; preds = %21
  %25 = shl i32 %22, 1
  %spec.select.i = tail call i32 @llvm.smin.i32(i32 %25, i32 128)
  store i32 %spec.select.i, ptr %18, align 4
  %26 = sext i32 %spec.select.i to i64
  %27 = shl nsw i64 %26, 3
  %28 = tail call ptr @repalloc(ptr noundef nonnull %11, i64 noundef %27) #10
  br label %29

29:                                               ; preds = %19, %24
  %.sink.i = phi ptr [ %28, %24 ], [ %20, %19 ]
  store ptr %.sink.i, ptr %10, align 8
  %.pr = load i32, ptr %18, align 4
  store i32 %.pr, ptr %7, align 8
  %30 = icmp sgt i32 %.pr, 0
  br i1 %30, label %.lr.ph.i, label %._crit_edge.i

.lr.ph.i:                                         ; preds = %.thread, %29
  %31 = phi i32 [ %22, %.thread ], [ %.pr, %29 ]
  %32 = getelementptr inbounds nuw i8, ptr %0, i64 56
  %33 = getelementptr inbounds nuw i8, ptr %0, i64 64
  %34 = getelementptr inbounds nuw i8, ptr %0, i64 24
  %35 = zext nneg i32 %31 to i64
  br label %41

._crit_edge.loopexit.i:                           ; preds = %ltsGetFreeBlock.exit.i
  %.pre.i = load ptr, ptr %10, align 8
  %.pre29.i = load i32, ptr %7, align 8
  br label %._crit_edge.i

._crit_edge.i:                                    ; preds = %._crit_edge.loopexit.i, %29
  %36 = phi i32 [ %.pre29.i, %._crit_edge.loopexit.i ], [ %.pr, %29 ]
  %37 = phi ptr [ %.pre.i, %._crit_edge.loopexit.i ], [ %.sink.i, %29 ]
  %38 = add i32 %36, -1
  store i32 %38, ptr %7, align 8
  %39 = sext i32 %38 to i64
  %40 = getelementptr inbounds i64, ptr %37, i64 %39
  br label %ltsGetPreallocBlock.exit

41:                                               ; preds = %ltsGetFreeBlock.exit.i, %.lr.ph.i
  %indvars.iv.i = phi i64 [ %35, %.lr.ph.i ], [ %indvars.iv.next.i, %ltsGetFreeBlock.exit.i ]
  %42 = load ptr, ptr %32, align 8
  %43 = load i64, ptr %33, align 8
  switch i64 %43, label %49 [
    i64 0, label %44
    i64 1, label %47
  ]

44:                                               ; preds = %41
  %45 = load i64, ptr %34, align 8
  %46 = add i64 %45, 1
  store i64 %46, ptr %34, align 8
  br label %ltsGetFreeBlock.exit.i

47:                                               ; preds = %41
  store i64 0, ptr %33, align 8
  %48 = load i64, ptr %42, align 8
  br label %ltsGetFreeBlock.exit.i

49:                                               ; preds = %41
  %50 = load i64, ptr %42, align 8
  %51 = add i64 %43, -1
  store i64 %51, ptr %33, align 8
  %52 = getelementptr inbounds i64, ptr %42, i64 %51
  %53 = load i64, ptr %52, align 8
  br label %54

54:                                               ; preds = %71, %49
  %.042.i.i = phi i64 [ 0, %49 ], [ %.0.i.i, %71 ]
  %55 = shl i64 %.042.i.i, 1
  %56 = or disjoint i64 %55, 1
  %57 = add i64 %55, 2
  %58 = icmp ult i64 %56, %51
  %59 = icmp ult i64 %57, %51
  %or.cond.i.i = and i1 %58, %59
  br i1 %or.cond.i.i, label %60, label %67

60:                                               ; preds = %54
  %61 = getelementptr inbounds nuw i64, ptr %42, i64 %56
  %62 = load i64, ptr %61, align 8
  %63 = getelementptr inbounds nuw i64, ptr %42, i64 %57
  %64 = load i64, ptr %63, align 8
  %65 = icmp slt i64 %62, %64
  %66 = select i1 %65, i64 %56, i64 %57
  br label %68

67:                                               ; preds = %54
  %brmerge.i.i = or i1 %58, %59
  %.mux.i.i = select i1 %58, i64 %56, i64 %57
  br i1 %brmerge.i.i, label %68, label %73

68:                                               ; preds = %67, %60
  %.0.i.i = phi i64 [ %66, %60 ], [ %.mux.i.i, %67 ]
  %69 = getelementptr inbounds nuw i64, ptr %42, i64 %.0.i.i
  %70 = load i64, ptr %69, align 8
  %.not.i.i = icmp slt i64 %70, %53
  br i1 %.not.i.i, label %71, label %73

71:                                               ; preds = %68
  %72 = getelementptr inbounds nuw i64, ptr %42, i64 %.042.i.i
  store i64 %70, ptr %72, align 8
  br label %54

73:                                               ; preds = %68, %67
  %74 = getelementptr inbounds nuw i64, ptr %42, i64 %.042.i.i
  store i64 %53, ptr %74, align 8
  br label %ltsGetFreeBlock.exit.i

ltsGetFreeBlock.exit.i:                           ; preds = %73, %47, %44
  %.041.i.i = phi i64 [ %45, %44 ], [ %48, %47 ], [ %50, %73 ]
  %75 = load ptr, ptr %10, align 8
  %76 = getelementptr i64, ptr %75, i64 %indvars.iv.i
  %77 = getelementptr i8, ptr %76, i64 -8
  store i64 %.041.i.i, ptr %77, align 8
  %indvars.iv.next.i = add nsw i64 %indvars.iv.i, -1
  %78 = icmp sgt i64 %indvars.iv.i, 1
  br i1 %78, label %41, label %._crit_edge.loopexit.i, !llvm.loop !8

ltsGetPreallocBlock.exit:                         ; preds = %12, %._crit_edge.i
  %.024.in.i = phi ptr [ %15, %12 ], [ %40, %._crit_edge.i ]
  %.024.i = load i64, ptr %.024.in.i, align 8
  br label %ltsGetFreeBlock.exit

79:                                               ; preds = %2
  %80 = getelementptr inbounds nuw i8, ptr %0, i64 56
  %81 = load ptr, ptr %80, align 8
  %82 = getelementptr inbounds nuw i8, ptr %0, i64 64
  %83 = load i64, ptr %82, align 8
  switch i64 %83, label %90 [
    i64 0, label %84
    i64 1, label %88
  ]

84:                                               ; preds = %79
  %85 = getelementptr inbounds nuw i8, ptr %0, i64 24
  %86 = load i64, ptr %85, align 8
  %87 = add i64 %86, 1
  store i64 %87, ptr %85, align 8
  br label %ltsGetFreeBlock.exit

88:                                               ; preds = %79
  store i64 0, ptr %82, align 8
  %89 = load i64, ptr %81, align 8
  br label %ltsGetFreeBlock.exit

90:                                               ; preds = %79
  %91 = load i64, ptr %81, align 8
  %92 = add i64 %83, -1
  store i64 %92, ptr %82, align 8
  %93 = getelementptr inbounds i64, ptr %81, i64 %92
  %94 = load i64, ptr %93, align 8
  br label %95

95:                                               ; preds = %112, %90
  %.042.i = phi i64 [ 0, %90 ], [ %.0.i, %112 ]
  %96 = shl i64 %.042.i, 1
  %97 = or disjoint i64 %96, 1
  %98 = add i64 %96, 2
  %99 = icmp ult i64 %97, %92
  %100 = icmp ult i64 %98, %92
  %or.cond.i = and i1 %99, %100
  br i1 %or.cond.i, label %101, label %108

101:                                              ; preds = %95
  %102 = getelementptr inbounds nuw i64, ptr %81, i64 %97
  %103 = load i64, ptr %102, align 8
  %104 = getelementptr inbounds nuw i64, ptr %81, i64 %98
  %105 = load i64, ptr %104, align 8
  %106 = icmp slt i64 %103, %105
  %107 = select i1 %106, i64 %97, i64 %98
  br label %109

108:                                              ; preds = %95
  %brmerge.i = or i1 %99, %100
  %.mux.i = select i1 %99, i64 %97, i64 %98
  br i1 %brmerge.i, label %109, label %114

109:                                              ; preds = %108, %101
  %.0.i = phi i64 [ %107, %101 ], [ %.mux.i, %108 ]
  %110 = getelementptr inbounds nuw i64, ptr %81, i64 %.0.i
  %111 = load i64, ptr %110, align 8
  %.not.i = icmp slt i64 %111, %94
  br i1 %.not.i, label %112, label %114

112:                                              ; preds = %109
  %113 = getelementptr inbounds nuw i64, ptr %81, i64 %.042.i
  store i64 %111, ptr %113, align 8
  br label %95

114:                                              ; preds = %109, %108
  %115 = getelementptr inbounds nuw i64, ptr %81, i64 %.042.i
  store i64 %94, ptr %115, align 8
  br label %ltsGetFreeBlock.exit

ltsGetFreeBlock.exit:                             ; preds = %114, %88, %84, %ltsGetPreallocBlock.exit
  %.0 = phi i64 [ %.024.i, %ltsGetPreallocBlock.exit ], [ %86, %84 ], [ %89, %88 ], [ %91, %114 ]
  ret i64 %.0
}